; Function Attrs: mustprogress nounwind uwtable
define internal fastcc noundef zeroext i1 @_ZN12_GLOBAL__N_112ELFAsmParser18ParseSectionSwitchEN4llvm9StringRefEjjNS1_11SectionKindE(ptr noundef nonnull readonly align 8 captures(none) dereferenceable(17) %0, ptr %1, i64 %2, i32 noundef range(i32 1, 9) %3, i32 noundef range(i32 2, 1028) %4) unnamed_addr #0 align 2 {
  %6 = alloca %"class.llvm::Twine", align 8
  %7 = alloca ptr, align 8
  %8 = alloca %"class.llvm::Twine", align 8
  store ptr null, ptr %7, align 8
  %9 = getelementptr inbounds nuw i8, ptr %0, i64 8
  %10 = load ptr, ptr %9, align 8
  %11 = load ptr, ptr %10, align 8
  %12 = getelementptr inbounds nuw i8, ptr %11, i64 40
  %13 = load ptr, ptr %12, align 8
  %14 = tail call noundef nonnull align 8 dereferenceable(144) ptr %13(ptr noundef nonnull align 8 dereferenceable(34) %10) #15
  %15 = getelementptr inbounds nuw i8, ptr %14, i64 8
  %16 = load ptr, ptr %15, align 8
  %17 = load i32, ptr %16, align 8
  %.not = icmp eq i32 %17, 9
  br i1 %.not, label %21, label %18

18:                                               ; preds = %5
  %19 = load ptr, ptr %9, align 8
  %20 = call noundef zeroext i1 @_ZN4llvm11MCAsmParser15parseExpressionERPKNS_6MCExprE(ptr noundef nonnull align 8 dereferenceable(34) %19, ptr noundef nonnull align 8 dereferenceable(8) %7) #15
  br i1 %20, label %44, label %21

21:                                               ; preds = %18, %5
  %22 = load ptr, ptr %9, align 8
  %23 = load ptr, ptr %22, align 8
  %24 = getelementptr inbounds nuw i8, ptr %23, i64 184
  %25 = load ptr, ptr %24, align 8
  %26 = call noundef nonnull align 8 dereferenceable(40) ptr %25(ptr noundef nonnull align 8 dereferenceable(34) %22) #15
  %27 = load ptr, ptr %9, align 8
  %28 = load ptr, ptr %27, align 8
  %29 = getelementptr inbounds nuw i8, ptr %28, i64 56
  %30 = load ptr, ptr %29, align 8
  %31 = call noundef nonnull align 8 dereferenceable(288) ptr %30(ptr noundef nonnull align 8 dereferenceable(34) %27) #15
  %32 = load ptr, ptr %9, align 8
  %33 = load ptr, ptr %32, align 8
  %34 = getelementptr inbounds nuw i8, ptr %33, i64 48
  %35 = load ptr, ptr %34, align 8
  %36 = call noundef nonnull align 8 dereferenceable(2432) ptr %35(ptr noundef nonnull align 8 dereferenceable(34) %32) #15
  %37 = getelementptr inbounds nuw i8, ptr %8, i64 32
  store i8 5, ptr %37, align 8
  %38 = getelementptr inbounds nuw i8, ptr %8, i64 33
  store i8 1, ptr %38, align 1
  store ptr %1, ptr %8, align 8
  %39 = getelementptr inbounds nuw i8, ptr %8, i64 8
  store i64 %2, ptr %39, align 8
  call void @llvm.lifetime.start.p0(i64 40, ptr nonnull %6)
  %40 = getelementptr inbounds nuw i8, ptr %6, i64 32
  store i16 257, ptr %40, align 8
  %41 = call noundef ptr @_ZN4llvm9MCContext13getELFSectionERKNS_5TwineEjjjS3_bjPKNS_11MCSymbolELFE(ptr noundef nonnull align 8 dereferenceable(2432) %36, ptr noundef nonnull align 8 dereferenceable(34) %8, i32 noundef %3, i32 noundef %4, i32 noundef 0, ptr noundef nonnull align 8 dereferenceable(34) %6, i1 noundef zeroext false, i32 noundef -1, ptr noundef null) #15
  call void @llvm.lifetime.end.p0(i64 40, ptr nonnull %6)
  %42 = load ptr, ptr %7, align 8
  %43 = call noundef zeroext i1 @_ZN4llvm10MCStreamer13switchSectionEPNS_9MCSectionEPKNS_6MCExprE(ptr noundef nonnull align 8 dereferenceable(288) %31, ptr noundef %41, ptr noundef %42) #15
  br label %44

44:                                               ; preds = %18, %21
  %.0 = phi i1 [ false, %21 ], [ true, %18 ]
  ret i1 %.0
}